; Function Attrs: mustprogress uwtable
define hidden noundef nonnull align 8 dereferenceable(8) ptr @_ZN3satlsERSoRKNS_6clauseE(ptr noundef nonnull returned align 8 dereferenceable(8) %out, ptr nocapture noundef nonnull readonly align 4 dereferenceable(20) %c) local_unnamed_addr #8 {
entry:
  %call = tail call noundef nonnull align 8 dereferenceable(8) ptr @_ZStlsISt11char_traitsIcEERSt13basic_ostreamIcT_ES5_PKc(ptr noundef nonnull align 8 dereferenceable(8) %out, ptr noundef nonnull @.str.2)
  %m_size.i = getelementptr inbounds i8, ptr %c, i64 4
  %0 = load i32, ptr %m_size.i, align 4
  %cmp19.not = icmp eq i32 %0, 0
  br i1 %cmp19.not, label %for.end, label %for.body.lr.ph

for.body.lr.ph:                                   ; preds = %entry
  %m_lits.i = getelementptr inbounds i8, ptr %c, i64 20
  br label %for.body

for.body:                                         ; preds = %for.body.lr.ph, %_ZN3satlsERSoNS_7literalE.exit
  %indvars.iv = phi i64 [ 0, %for.body.lr.ph ], [ %indvars.iv.next, %_ZN3satlsERSoNS_7literalE.exit ]
  %cmp2.not = icmp eq i64 %indvars.iv, 0
  br i1 %cmp2.not, label %if.end, label %if.then

if.then:                                          ; preds = %for.body
  %call3 = tail call noundef nonnull align 8 dereferenceable(8) ptr @_ZStlsISt11char_traitsIcEERSt13basic_ostreamIcT_ES5_PKc(ptr noundef nonnull align 8 dereferenceable(8) %out, ptr noundef nonnull @.str.3)
  br label %if.end

if.end:                                           ; preds = %if.then, %for.body
  %arrayidx.i = getelementptr inbounds [0 x %"class.sat::literal"], ptr %m_lits.i, i64 0, i64 %indvars.iv
  %agg.tmp.sroa.0.0.copyload = load i32, ptr %arrayidx.i, align 4
  %.b = load i1, ptr @_ZN3satL12null_literalE.0, align 4
  %1 = select i1 %.b, i32 -2, i32 0
  %cmp.i.i = icmp eq i32 %1, %agg.tmp.sroa.0.0.copyload
  br i1 %cmp.i.i, label %if.then.i, label %if.else.i

if.then.i:                                        ; preds = %if.end
  %call1.i = tail call noundef nonnull align 8 dereferenceable(8) ptr @_ZStlsISt11char_traitsIcEERSt13basic_ostreamIcT_ES5_PKc(ptr noundef nonnull align 8 dereferenceable(8) %out, ptr noundef nonnull @.str.12)
  br label %_ZN3satlsERSoNS_7literalE.exit

if.else.i:                                        ; preds = %if.end
  %2 = and i32 %agg.tmp.sroa.0.0.copyload, 1
  %tobool.i.not.i = icmp eq i32 %2, 0
  %cond.i = select i1 %tobool.i.not.i, ptr @.str.14, ptr @.str.13
  %call3.i = tail call noundef nonnull align 8 dereferenceable(8) ptr @_ZStlsISt11char_traitsIcEERSt13basic_ostreamIcT_ES5_PKc(ptr noundef nonnull align 8 dereferenceable(8) %out, ptr noundef nonnull %cond.i)
  %shr.i.i = lshr i32 %agg.tmp.sroa.0.0.copyload, 1
  %call5.i = tail call noundef nonnull align 8 dereferenceable(8) ptr @_ZNSolsEj(ptr noundef nonnull align 8 dereferenceable(8) %call3.i, i32 noundef %shr.i.i)
  br label %_ZN3satlsERSoNS_7literalE.exit

_ZN3satlsERSoNS_7literalE.exit:                   ; preds = %if.then.i, %if.else.i
  %indvars.iv.next = add nuw nsw i64 %indvars.iv, 1
  %3 = load i32, ptr %m_size.i, align 4
  %4 = zext i32 %3 to i64
  %cmp = icmp ult i64 %indvars.iv.next, %4
  br i1 %cmp, label %for.body, label %for.end, !llvm.loop !9

for.end:                                          ; preds = %_ZN3satlsERSoNS_7literalE.exit, %entry
  %call6 = tail call noundef nonnull align 8 dereferenceable(8) ptr @_ZStlsISt11char_traitsIcEERSt13basic_ostreamIcT_ES5_PKc(ptr noundef nonnull align 8 dereferenceable(8) %out, ptr noundef nonnull @.str.4)
  %m_removed.i = getelementptr inbounds i8, ptr %c, i64 16
  %bf.load.i = load i32, ptr %m_removed.i, align 4
  %5 = and i32 %bf.load.i, 2
  %tobool.i.not = icmp eq i32 %5, 0
  br i1 %tobool.i.not, label %if.end10, label %if.then8

if.then8:                                         ; preds = %for.end
  %call9 = tail call noundef nonnull align 8 dereferenceable(8) ptr @_ZStlsISt11char_traitsIcEERSt13basic_ostreamIcT_ES5_PKc(ptr noundef nonnull align 8 dereferenceable(8) %out, ptr noundef nonnull @.str.5)
  %bf.load.i15.pre = load i32, ptr %m_removed.i, align 4
  br label %if.end10

if.end10:                                         ; preds = %if.then8, %for.end
  %bf.load.i15 = phi i32 [ %bf.load.i15.pre, %if.then8 ], [ %bf.load.i, %for.end ]
  %bf.clear.i = and i32 %bf.load.i15, 1
  %tobool.i16.not = icmp eq i32 %bf.clear.i, 0
  br i1 %tobool.i16.not, label %if.end14, label %if.then12

if.then12:                                        ; preds = %if.end10
  %call13 = tail call noundef nonnull align 8 dereferenceable(8) ptr @_ZStlsISt11char_traitsIcEERSt13basic_ostreamIcT_ES5_PKc(ptr noundef nonnull align 8 dereferenceable(8) %out, ptr noundef nonnull @.str.6)
  %bf.load.i17.pre = load i32, ptr %m_removed.i, align 4
  br label %if.end14

if.end14:                                         ; preds = %if.then12, %if.end10
  %bf.load.i17 = phi i32 [ %bf.load.i17.pre, %if.then12 ], [ %bf.load.i15, %if.end10 ]
  %6 = and i32 %bf.load.i17, 4
  %tobool.i18.not = icmp eq i32 %6, 0
  br i1 %tobool.i18.not, label %if.end18, label %if.then16

if.then16:                                        ; preds = %if.end14
  %call17 = tail call noundef nonnull align 8 dereferenceable(8) ptr @_ZStlsISt11char_traitsIcEERSt13basic_ostreamIcT_ES5_PKc(ptr noundef nonnull align 8 dereferenceable(8) %out, ptr noundef nonnull @.str.7)
  br label %if.end18

if.end18:                                         ; preds = %if.then16, %if.end14
  ret ptr %out
}